; Function Attrs: mustprogress nounwind uwtable
define dso_local noundef zeroext i1 @_ZNK5clang8CallExpr20isBuiltinAssumeFalseERKNS_10ASTContextE(ptr noundef nonnull align 8 dereferenceable(24) %0, ptr noundef nonnull align 8 dereferenceable(23096) %1) local_unnamed_addr #1 align 2 {
  %3 = alloca i8, align 1
  %4 = tail call noundef ptr @_ZNK5clang8CallExpr13getCalleeDeclEv(ptr noundef nonnull align 8 dereferenceable(24) %0)
  %.not.i.i.i.i = icmp eq ptr %4, null
  br i1 %.not.i.i.i.i, label %_ZNK5clang8CallExpr16getBuiltinCalleeEv.exit.thread, label %5

5:                                                ; preds = %2
  %6 = getelementptr inbounds nuw i8, ptr %4, i64 28
  %7 = load i32, ptr %6, align 4
  %8 = and i32 %7, 127
  %9 = add nsw i32 %8, -31
  %10 = icmp ult i32 %9, 6
  br i1 %10, label %_ZNK5clang8CallExpr16getBuiltinCalleeEv.exit, label %_ZNK5clang8CallExpr16getBuiltinCalleeEv.exit.thread

_ZNK5clang8CallExpr16getBuiltinCalleeEv.exit:     ; preds = %5
  %11 = tail call noundef i32 @_ZNK5clang12FunctionDecl12getBuiltinIDEb(ptr noundef nonnull align 8 dereferenceable(168) %4, i1 noundef zeroext false) #28
  switch i32 %11, label %_ZNK5clang8CallExpr16getBuiltinCalleeEv.exit.thread [
    i32 845, label %12
    i32 148, label %12
  ]

12:                                               ; preds = %_ZNK5clang8CallExpr16getBuiltinCalleeEv.exit, %_ZNK5clang8CallExpr16getBuiltinCalleeEv.exit
  %13 = load i32, ptr %0, align 8
  %14 = lshr i32 %13, 24
  %15 = zext nneg i32 %14 to i64
  %16 = getelementptr inbounds i8, ptr %0, i64 %15
  %17 = getelementptr inbounds i8, ptr %16, i64 8
  %18 = lshr i32 %13, 18
  %19 = and i32 %18, 1
  %20 = zext nneg i32 %19 to i64
  %21 = getelementptr inbounds ptr, ptr %17, i64 %20
  %22 = load ptr, ptr %21, align 8
  %23 = getelementptr inbounds nuw i8, ptr %22, i64 1
  %24 = load i16, ptr %23, align 1
  %25 = and i16 %24, 256
  %.not = icmp eq i16 %25, 0
  br i1 %.not, label %26, label %_ZNK5clang8CallExpr16getBuiltinCalleeEv.exit.thread

26:                                               ; preds = %12
  %27 = call noundef zeroext i1 @_ZNK5clang4Expr26EvaluateAsBooleanConditionERbRKNS_10ASTContextEb(ptr noundef nonnull align 8 dereferenceable(16) %22, ptr noundef nonnull align 1 dereferenceable(1) %3, ptr noundef nonnull align 8 dereferenceable(23096) %1, i1 noundef zeroext false) #28
  br i1 %27, label %28, label %_ZNK5clang8CallExpr16getBuiltinCalleeEv.exit.thread

28:                                               ; preds = %26
  %29 = load i8, ptr %3, align 1
  %30 = trunc i8 %29 to i1
  %31 = xor i1 %30, true
  br label %_ZNK5clang8CallExpr16getBuiltinCalleeEv.exit.thread

_ZNK5clang8CallExpr16getBuiltinCalleeEv.exit.thread: ; preds = %2, %5, %12, %26, %28, %_ZNK5clang8CallExpr16getBuiltinCalleeEv.exit
  %.0 = phi i1 [ false, %_ZNK5clang8CallExpr16getBuiltinCalleeEv.exit ], [ false, %26 ], [ false, %12 ], [ %31, %28 ], [ false, %5 ], [ false, %2 ]
  ret i1 %.0
}